target datalayout = "e-m:e-p270:32:32-p271:32:32-p272:64:64-i64:64-i128:128-f80:128-n8:16:32:64-S128"
target triple = "x86_64-pc-linux-gnu"

%struct.pmix_object_t = type { %union.pthread_mutex_t, ptr, i32, %struct.pmix_tma }
%struct.pmix_tma = type { ptr, ptr, ptr, ptr, ptr, ptr, ptr, ptr }
%union.pthread_mutex_t = type { %struct.__pthread_mutex_s }
%struct.__pthread_mutex_s = type { i32, i32, i32, i32, i32, i16, i16, %struct.__pthread_internal_list }
%struct.__pthread_internal_list = type { ptr, ptr }
%struct.pmix_pointer_array_t = type { %struct.pmix_object_t, i32, i32, i32, i32, i32, ptr, ptr }
%struct.pmix_list_t = type { %struct.pmix_object_t, %struct.pmix_list_item_t, i64 }
%struct.pmix_list_item_t = type { %struct.pmix_object_t, ptr, ptr, i32 }
%struct.pmix_proc = type { [256 x i8], i32 }
%struct.timeval = type { i64, i64 }
%struct.pmix_server_globals_t = type { %struct.pmix_list_t, %struct.pmix_pointer_array_t, %struct.pmix_list_t, %struct.pmix_list_t, %struct.pmix_list_t, %struct.pmix_list_t, ptr, %struct.pmix_list_t, ptr, %struct.pmix_list_t, %struct.pmix_list_t, %struct.pmix_list_t, i64, i8, ptr, ptr, i8, i32, i32, i32, i32, i32, i32, i32, i32, i32, i32, i32, i32, i32, i32, i32, i32, i32, i32 }
%struct.event = type { %struct.event_callback, %union.anon.2, i32, ptr, %union.anon.4, i16, i16, %struct.timeval }
%struct.event_callback = type { %struct.anon.0, i16, i8, i8, %union.anon.1, ptr }
%struct.anon.0 = type { ptr, ptr }
%union.anon.1 = type { ptr }
%union.anon.2 = type { %struct.anon.3 }
%struct.anon.3 = type { ptr, ptr }
%union.anon.4 = type { %struct.anon.5 }
%struct.anon.5 = type { %struct.anon.6, %struct.timeval }
%struct.anon.6 = type { ptr, ptr }
%struct.pmix_name_t = type { ptr, i32 }
%struct.pmix_peer_t = type { %struct.pmix_object_t, ptr, ptr, %struct.pmix_proc_type_t, i16, i32, i32, i32, i8, %struct.event, i8, %struct.event, i8, %struct.pmix_list_t, ptr, ptr, i32, %struct.pmix_epilog_t }
%struct.pmix_proc_type_t = type { i32, i8, i8, i8, i8 }
%struct.pmix_epilog_t = type { i32, i32, %struct.pmix_list_t, %struct.pmix_list_t, %struct.pmix_list_t }
%struct.pmix_rank_info_t = type { %struct.pmix_list_item_t, i32, %struct.pmix_name_t, i32, i32, i8, i32, ptr }

@pmix_server_globals = external global %struct.pmix_server_globals_t, align 8

; Function Attrs: inlinehint nounwind uwtable
define internal ptr @pmix_pointer_array_get_item(ptr noundef %0, i32 noundef %1) #2 {
  %3 = alloca ptr, align 8
  %4 = alloca ptr, align 8
  %5 = alloca i32, align 4
  %6 = alloca ptr, align 8
  %7 = alloca i32, align 4
  store ptr %0, ptr %4, align 8, !tbaa !201
  store i32 %1, ptr %5, align 4, !tbaa !54
  call void @llvm.lifetime.start.p0(i64 8, ptr %6) #13
  %8 = load i32, ptr %5, align 4, !tbaa !54
  %9 = icmp sgt i32 0, %8
  br i1 %9, label %16, label %10

10:                                               ; preds = %2
  %11 = load ptr, ptr %4, align 8, !tbaa !201
  %12 = getelementptr inbounds nuw %struct.pmix_pointer_array_t, ptr %11, i32 0, i32 3
  %13 = load i32, ptr %12, align 8, !tbaa !202
  %14 = load i32, ptr %5, align 4, !tbaa !54
  %15 = icmp sle i32 %13, %14
  br label %16

16:                                               ; preds = %10, %2
  %17 = phi i1 [ true, %2 ], [ %15, %10 ]
  %18 = xor i1 %17, true
  %19 = xor i1 %18, true
  %20 = zext i1 %19 to i32
  %21 = sext i32 %20 to i64
  %22 = call i64 @llvm.expect.i64(i64 %21, i64 0)
  %23 = icmp ne i64 %22, 0
  br i1 %23, label %24, label %25

24:                                               ; preds = %16
  store ptr null, ptr %3, align 8
  store i32 1, ptr %7, align 4
  br label %34

25:                                               ; preds = %16
  %26 = load ptr, ptr %4, align 8, !tbaa !201
  %27 = getelementptr inbounds nuw %struct.pmix_pointer_array_t, ptr %26, i32 0, i32 7
  %28 = load ptr, ptr %27, align 8, !tbaa !203
  %29 = load i32, ptr %5, align 4, !tbaa !54
  %30 = sext i32 %29 to i64
  %31 = getelementptr inbounds ptr, ptr %28, i64 %30
  %32 = load ptr, ptr %31, align 8, !tbaa !53
  store ptr %32, ptr %6, align 8, !tbaa !53
  %33 = load ptr, ptr %6, align 8, !tbaa !53
  store ptr %33, ptr %3, align 8
  store i32 1, ptr %7, align 4
  br label %34

34:                                               ; preds = %25, %24
  call void @llvm.lifetime.end.p0(i64 8, ptr %6) #13
  %35 = load ptr, ptr %3, align 8
  ret ptr %35
}

; Function Attrs: inlinehint nounwind uwtable
define internal ptr @pmix_get_peer_object(ptr noundef %0) #2 {
  %2 = alloca ptr, align 8
  %3 = alloca ptr, align 8
  %4 = alloca ptr, align 8
  %5 = alloca i32, align 4
  %6 = alloca i32, align 4
  store ptr %0, ptr %3, align 8, !tbaa !174
  call void @llvm.lifetime.start.p0(i64 8, ptr %4) #13
  call void @llvm.lifetime.start.p0(i64 4, ptr %5) #13
  store i32 0, ptr %5, align 4, !tbaa !54
  br label %7

7:                                                ; preds = %42, %1
  %8 = load i32, ptr %5, align 4, !tbaa !54
  %9 = load i32, ptr getelementptr inbounds nuw (%struct.pmix_pointer_array_t, ptr getelementptr inbounds nuw (%struct.pmix_server_globals_t, ptr @pmix_server_globals, i32 0, i32 1), i32 0, i32 3), align 8, !tbaa !175
  %10 = icmp slt i32 %8, %9
  br i1 %10, label %11, label %45

11:                                               ; preds = %7
  %12 = load i32, ptr %5, align 4, !tbaa !54
  %13 = call ptr @pmix_pointer_array_get_item(ptr noundef getelementptr inbounds nuw (%struct.pmix_server_globals_t, ptr @pmix_server_globals, i32 0, i32 1), i32 noundef %12)
  store ptr %13, ptr %4, align 8, !tbaa !155
  %14 = load ptr, ptr %4, align 8, !tbaa !155
  %15 = icmp eq ptr null, %14
  br i1 %15, label %16, label %17

16:                                               ; preds = %11
  br label %42

17:                                               ; preds = %11
  %18 = load ptr, ptr %3, align 8, !tbaa !174
  %19 = getelementptr inbounds nuw %struct.pmix_proc, ptr %18, i32 0, i32 0
  %20 = getelementptr inbounds [256 x i8], ptr %19, i64 0, i64 0
  %21 = load ptr, ptr %4, align 8, !tbaa !155
  %22 = getelementptr inbounds nuw %struct.pmix_peer_t, ptr %21, i32 0, i32 2
  %23 = load ptr, ptr %22, align 8, !tbaa !177
  %24 = getelementptr inbounds nuw %struct.pmix_rank_info_t, ptr %23, i32 0, i32 2
  %25 = getelementptr inbounds nuw %struct.pmix_name_t, ptr %24, i32 0, i32 0
  %26 = load ptr, ptr %25, align 8, !tbaa !178
  %27 = call zeroext i1 @PMIx_Check_nspace(ptr noundef %20, ptr noundef %26)
  br i1 %27, label %28, label %41

28:                                               ; preds = %17
  %29 = load ptr, ptr %3, align 8, !tbaa !174
  %30 = getelementptr inbounds nuw %struct.pmix_proc, ptr %29, i32 0, i32 1
  %31 = load i32, ptr %30, align 4, !tbaa !180
  %32 = load ptr, ptr %4, align 8, !tbaa !155
  %33 = getelementptr inbounds nuw %struct.pmix_peer_t, ptr %32, i32 0, i32 2
  %34 = load ptr, ptr %33, align 8, !tbaa !177
  %35 = getelementptr inbounds nuw %struct.pmix_rank_info_t, ptr %34, i32 0, i32 2
  %36 = getelementptr inbounds nuw %struct.pmix_name_t, ptr %35, i32 0, i32 1
  %37 = load i32, ptr %36, align 8, !tbaa !181
  %38 = icmp eq i32 %31, %37
  br i1 %38, label %39, label %41

39:                                               ; preds = %28
  %40 = load ptr, ptr %4, align 8, !tbaa !155
  store ptr %40, ptr %2, align 8
  store i32 1, ptr %6, align 4
  br label %46

41:                                               ; preds = %28, %17
  br label %42

42:                                               ; preds = %41, %16
  %43 = load i32, ptr %5, align 4, !tbaa !54
  %44 = add nsw i32 %43, 1
  store i32 %44, ptr %5, align 4, !tbaa !54
  br label %7, !llvm.loop !182

45:                                               ; preds = %7
  store ptr null, ptr %2, align 8
  store i32 1, ptr %6, align 4
  br label %46

46:                                               ; preds = %45, %39
  call void @llvm.lifetime.end.p0(i64 4, ptr %5) #13
  call void @llvm.lifetime.end.p0(i64 8, ptr %4) #13
  %47 = load ptr, ptr %2, align 8
  ret ptr %47
}