; Function Attrs: inlinehint nounwind uwtable
define internal fastcc ptr @pmix_get_peer_object(ptr noundef nonnull %0) unnamed_addr #5 {
  %2 = getelementptr inbounds nuw i8, ptr %0, i64 256
  %3 = load i32, ptr getelementptr inbounds nuw (i8, ptr @pmix_server_globals, i64 400), align 8, !tbaa !150
  %4 = icmp sgt i32 %3, 0
  br i1 %4, label %pmix_pointer_array_get_item.exit.preheader, label %._crit_edge

pmix_pointer_array_get_item.exit.preheader:       ; preds = %1
  %.pre15 = load ptr, ptr getelementptr inbounds nuw (i8, ptr @pmix_server_globals, i64 424), align 8, !tbaa !152
  br label %pmix_pointer_array_get_item.exit

pmix_pointer_array_get_item.exit:                 ; preds = %pmix_pointer_array_get_item.exit.preheader, %21
  %5 = phi ptr [ %.pre15, %pmix_pointer_array_get_item.exit.preheader ], [ %22, %21 ]
  %indvars.iv = phi i64 [ 0, %pmix_pointer_array_get_item.exit.preheader ], [ %indvars.iv.next, %21 ]
  %6 = getelementptr inbounds nuw ptr, ptr %5, i64 %indvars.iv
  %7 = load ptr, ptr %6, align 8, !tbaa !54
  %8 = icmp eq ptr %7, null
  br i1 %8, label %21, label %9

9:                                                ; preds = %pmix_pointer_array_get_item.exit
  %10 = getelementptr inbounds nuw i8, ptr %7, i64 128
  %11 = load ptr, ptr %10, align 8, !tbaa !153
  %12 = getelementptr inbounds nuw i8, ptr %11, i64 152
  %13 = load ptr, ptr %12, align 8, !tbaa !154
  %14 = tail call zeroext i1 @PMIx_Check_nspace(ptr noundef nonnull %0, ptr noundef %13) #14
  %.pre = load ptr, ptr getelementptr inbounds nuw (i8, ptr @pmix_server_globals, i64 424), align 8, !tbaa !152
  br i1 %14, label %15, label %21

15:                                               ; preds = %9
  %16 = load i32, ptr %2, align 4, !tbaa !156
  %17 = load ptr, ptr %10, align 8, !tbaa !153
  %18 = getelementptr inbounds nuw i8, ptr %17, i64 160
  %19 = load i32, ptr %18, align 8, !tbaa !157
  %20 = icmp eq i32 %16, %19
  br i1 %20, label %._crit_edge, label %21

21:                                               ; preds = %9, %15, %pmix_pointer_array_get_item.exit
  %22 = phi ptr [ %.pre, %9 ], [ %.pre, %15 ], [ %5, %pmix_pointer_array_get_item.exit ]
  %indvars.iv.next = add nuw nsw i64 %indvars.iv, 1
  %23 = load i32, ptr getelementptr inbounds nuw (i8, ptr @pmix_server_globals, i64 400), align 8, !tbaa !150
  %24 = sext i32 %23 to i64
  %25 = icmp slt i64 %indvars.iv.next, %24
  br i1 %25, label %pmix_pointer_array_get_item.exit, label %._crit_edge, !llvm.loop !158

._crit_edge:                                      ; preds = %15, %21, %1
  %.09 = phi ptr [ null, %1 ], [ null, %21 ], [ %7, %15 ]
  ret ptr %.09
}